(lp1
(dp2
S'startPos'
p3
(I-70
I0
tp4
sS'route'
p5
(lp6
(I48
I-1
tp7
a(I4
I-1
tp8
a(I24
I1
tp9
a(I12
I-1
tp10
a(I4
I-1
tp11
a(I12
I1
tp12
a(I16
I1
tp13
a(I28
I-1
tp14
a(I4
I-1
tp15
a(I32
I0
tp16
asa(dp17
g3
(I-34
I0
tp18
sg5
(lp19
(I48
I-1
tp20
a(I32
I-1
tp21
a(I4
I-1
tp22
a(I28
I1
tp23
a(I44
I-1
tp24
a(I4
I0
tp25
asa(dp26
g3
(I2
I0
tp27
sg5
(lp28
(I48
I-1
tp29
a(I32
I-1
tp30
a(I48
I-1
tp31
a(I26
I-1
tp32
a(I4
I-1
tp33
a(I22
I1
tp34
a(I40
I1
tp35
a(I24
I1
tp36
a(I44
I-1
tp37
a(I4
I0
tp38
asa(dp39
g3
(I38
I0
tp40
sg5
(lp41
(I48
I-1
tp42
a(I32
I-1
tp43
a(I48
I-1
tp44
a(I4
I-1
tp45
a(I44
I1
tp46
a(I24
I1
tp47
a(I44
I-1
tp48
a(I4
I0
tp49
asa.